; Function Attrs: mustprogress nounwind uwtable
define hidden void @_ZN13InstanceKlass16add_to_hierarchyEP10JavaThread(ptr noundef nonnull align 8 dereferenceable(464) %0, ptr noundef %1) local_unnamed_addr #0 align 2 {
  %3 = alloca %class.DeoptimizationScope, align 8
  call void @_ZN19DeoptimizationScopeC1Ev(ptr noundef nonnull align 8 dereferenceable(8) %3) #26
  %4 = load ptr, ptr @Compile_lock, align 8
  %.not.i.i = icmp eq ptr %4, null
  br i1 %.not.i.i, label %_ZN11MutexLockerC2EP6ThreadP5MutexNS2_18SafepointCheckFlagE.exit, label %5

5:                                                ; preds = %2
  call void @_ZN5Mutex4lockEP6Thread(ptr noundef nonnull align 8 dereferenceable(104) %4, ptr noundef %1) #26
  br label %_ZN11MutexLockerC2EP6ThreadP5MutexNS2_18SafepointCheckFlagE.exit

_ZN11MutexLockerC2EP6ThreadP5MutexNS2_18SafepointCheckFlagE.exit: ; preds = %2, %5
  %6 = getelementptr inbounds i8, ptr %0, i64 305
  store volatile i8 1, ptr %6, align 1
  call void @_ZN5Klass22append_to_sibling_listEv(ptr noundef nonnull align 8 dereferenceable(196) %0) #26
  %7 = getelementptr inbounds i8, ptr %0, i64 416
  %8 = load ptr, ptr %7, align 8
  %9 = load i32, ptr %8, align 8
  %10 = icmp sgt i32 %9, 0
  br i1 %10, label %.lr.ph.preheader.i, label %_ZN13InstanceKlass18process_interfacesEv.exit

.lr.ph.preheader.i:                               ; preds = %_ZN11MutexLockerC2EP6ThreadP5MutexNS2_18SafepointCheckFlagE.exit
  %11 = zext nneg i32 %9 to i64
  br label %.lr.ph.i

.lr.ph.i:                                         ; preds = %.lr.ph.i, %.lr.ph.preheader.i
  %indvars.iv.i = phi i64 [ %11, %.lr.ph.preheader.i ], [ %indvars.iv.next.i, %.lr.ph.i ]
  %indvars.iv.next.i = add nsw i64 %indvars.iv.i, -1
  %12 = load ptr, ptr %7, align 8
  %13 = getelementptr ptr, ptr %12, i64 %indvars.iv.i
  %14 = load ptr, ptr %13, align 8
  call void @_ZN13InstanceKlass15add_implementorEPS_(ptr noundef nonnull align 8 dereferenceable(464) %14, ptr noundef nonnull %0)
  %15 = icmp ugt i64 %indvars.iv.i, 1
  br i1 %15, label %.lr.ph.i, label %_ZN13InstanceKlass18process_interfacesEv.exit, !llvm.loop !37

_ZN13InstanceKlass18process_interfacesEv.exit:    ; preds = %.lr.ph.i, %_ZN11MutexLockerC2EP6ThreadP5MutexNS2_18SafepointCheckFlagE.exit
  %16 = load i8, ptr @_ZN8Universe18_fully_initializedE, align 1
  %17 = trunc i8 %16 to i1
  br i1 %17, label %18, label %19

18:                                               ; preds = %_ZN13InstanceKlass18process_interfacesEv.exit
  call void @_ZN9CodeCache18mark_dependents_onEP19DeoptimizationScopeP13InstanceKlass(ptr noundef nonnull %3, ptr noundef nonnull %0) #26
  br label %19

19:                                               ; preds = %18, %_ZN13InstanceKlass18process_interfacesEv.exit
  br i1 %.not.i.i, label %_ZN11MutexLockerD2Ev.exit, label %20

20:                                               ; preds = %19
  call void @_ZN5Mutex6unlockEv(ptr noundef nonnull align 8 dereferenceable(104) %4) #26
  br label %_ZN11MutexLockerD2Ev.exit

_ZN11MutexLockerD2Ev.exit:                        ; preds = %19, %20
  call void @_ZN19DeoptimizationScope17deoptimize_markedEv(ptr noundef nonnull align 8 dereferenceable(8) %3) #26
  call void @_ZN19DeoptimizationScopeD1Ev(ptr noundef nonnull align 8 dereferenceable(8) %3) #26
  ret void
}